(dp0
S'type'
p1
(lp2
S'entry'
p3
aS'living'
p4
aS'kitchen'
p5
aS'bedroom'
p6
ag6
aS'storage'
p7
aS'others'
p8
ag8
aS'outside'
p9
asS'roomID'
p10
(lp11
S'1'
p12
aS'2'
p13
aS'3'
p14
aS'4'
p15
aS'5'
p16
aS'6'
p17
aS'7'
p18
aS'8'
p19
aS'9'
p20
asS'name'
p21
(lp22
S'Entry room'
p23
aS'Hall'
p24
aS'Kitchen'
p25
aS'Master bedroom'
p26
aS'Guest bedroom'
p27
aS'pantry'
p28
aS'Staircase'
p29
ag29
aS'garden'
p30
asS'floor'
p31
(lp32
S'G'
p33
ag33
ag33
ag33
ag33
ag33
ag33
ag12
ag33
as.